target datalayout = "e-m:e-p270:32:32-p271:32:32-p272:64:64-i64:64-i128:128-f80:128-n8:16:32:64-S128"
target triple = "x86_64-pc-linux-gnu"

%struct.packing_data = type { ptr, ptr, i32, i32, ptr, i32, ptr, ptr, ptr, ptr, %union.pthread_mutex_t, ptr, i32, i32, i64, i64, ptr, ptr, ptr }
%union.pthread_mutex_t = type { %struct.__pthread_mutex_s }
%struct.__pthread_mutex_s = type { i32, i32, i32, i32, i32, i16, i16, %struct.__pthread_internal_list }
%struct.__pthread_internal_list = type { ptr, ptr }
%struct.hashmap = type { ptr, ptr, ptr, i32, i32, i32, i32, i8 }
%struct.object_entry = type { %struct.pack_idx_entry, ptr, i64, i32, i32, i32, i32, i32, [3 x i8], i8, i64 }
%struct.pack_idx_entry = type { %struct.object_id, i32, i64 }
%struct.object_id = type { [32 x i8], i32 }
%struct.repository = type { ptr, ptr, ptr, ptr, ptr, %struct.strmap, %struct.strmap, %struct.repo_path_cache, ptr, ptr, ptr, ptr, %struct.repo_settings, ptr, ptr, ptr, ptr, ptr, ptr, i32, i32, i32, ptr, ptr, i32, i32, i8 }
%struct.strmap = type { %struct.hashmap, ptr, i8 }
%struct.repo_path_cache = type { ptr, ptr, ptr, ptr, ptr, ptr, ptr }
%struct.repo_settings = type { i32, i32, i32, i32, i32, i32, i32, i32, i32, i32, i32, i32, ptr, i32, i32, i32, i32, i32, i32, i32, i64, i64, i64 }
%struct.object = type { i32, %struct.object_id }
%struct.attr_check = type { i32, i32, ptr, i32, ptr, ptr }
%struct.attr_check_item = type { ptr, ptr }

@to_pack = internal global %struct.packing_data zeroinitializer, align 8
@the_repository = external global ptr, align 8
@sane_ctype = external constant [256 x i8], align 16
@no_try_delta.check = internal global ptr null, align 8
@.str.152 = private unnamed_addr constant [6 x i8] c"delta\00", align 1
@git_attr__false = external constant [0 x i8], align 1
@stdin_packs_hints_nr = internal global i32 0, align 4

; Function Attrs: nounwind uwtable
define internal i32 @no_try_delta(ptr noundef %0) #0 {
  %2 = alloca i32, align 4
  %3 = alloca ptr, align 8
  store ptr %0, ptr %3, align 8, !tbaa !24
  %4 = load ptr, ptr @no_try_delta.check, align 8, !tbaa !261
  %5 = icmp ne ptr %4, null
  br i1 %5, label %8, label %6

6:                                                ; preds = %1
  %7 = call ptr (ptr, ...) @attr_check_initl(ptr noundef @.str.152, ptr noundef null)
  store ptr %7, ptr @no_try_delta.check, align 8, !tbaa !261
  br label %8

8:                                                ; preds = %6, %1
  %9 = load ptr, ptr @the_repository, align 8, !tbaa !11
  %10 = getelementptr inbounds nuw %struct.repository, ptr %9, i32 0, i32 15
  %11 = load ptr, ptr %10, align 8, !tbaa !263
  %12 = load ptr, ptr %3, align 8, !tbaa !24
  %13 = load ptr, ptr @no_try_delta.check, align 8, !tbaa !261
  call void @git_check_attr(ptr noundef %11, ptr noundef %12, ptr noundef %13)
  %14 = load ptr, ptr @no_try_delta.check, align 8, !tbaa !261
  %15 = getelementptr inbounds nuw %struct.attr_check, ptr %14, i32 0, i32 2
  %16 = load ptr, ptr %15, align 8, !tbaa !264
  %17 = getelementptr inbounds %struct.attr_check_item, ptr %16, i64 0
  %18 = getelementptr inbounds nuw %struct.attr_check_item, ptr %17, i32 0, i32 1
  %19 = load ptr, ptr %18, align 8, !tbaa !269
  %20 = icmp eq ptr %19, @git_attr__false
  br i1 %20, label %21, label %22

21:                                               ; preds = %8
  store i32 1, ptr %2, align 4
  br label %23

22:                                               ; preds = %8
  store i32 0, ptr %2, align 4
  br label %23

23:                                               ; preds = %22, %21
  %24 = load i32, ptr %2, align 4
  ret i32 %24
}

; Function Attrs: inlinehint nounwind uwtable
define internal i32 @pack_name_hash(ptr noundef %0) #2 {
  %2 = alloca i32, align 4
  %3 = alloca ptr, align 8
  %4 = alloca i32, align 4
  %5 = alloca i32, align 4
  %6 = alloca i32, align 4
  store ptr %0, ptr %3, align 8, !tbaa !24
  call void @llvm.lifetime.start.p0(i64 4, ptr %4) #11
  call void @llvm.lifetime.start.p0(i64 4, ptr %5) #11
  store i32 0, ptr %5, align 4, !tbaa !27
  %7 = load ptr, ptr %3, align 8, !tbaa !24
  %8 = icmp ne ptr %7, null
  br i1 %8, label %10, label %9

9:                                                ; preds = %1
  store i32 0, ptr %2, align 4
  store i32 1, ptr %6, align 4
  br label %35

10:                                               ; preds = %1
  br label %11

11:                                               ; preds = %27, %26, %10
  %12 = load ptr, ptr %3, align 8, !tbaa !24
  %13 = getelementptr inbounds nuw i8, ptr %12, i32 1
  store ptr %13, ptr %3, align 8, !tbaa !24
  %14 = load i8, ptr %12, align 1, !tbaa !26
  %15 = sext i8 %14 to i32
  store i32 %15, ptr %4, align 4, !tbaa !27
  %16 = icmp ne i32 %15, 0
  br i1 %16, label %17, label %33

17:                                               ; preds = %11
  %18 = load i32, ptr %4, align 4, !tbaa !27
  %19 = trunc i32 %18 to i8
  %20 = zext i8 %19 to i64
  %21 = getelementptr inbounds nuw [256 x i8], ptr @sane_ctype, i64 0, i64 %20
  %22 = load i8, ptr %21, align 1, !tbaa !26
  %23 = zext i8 %22 to i32
  %24 = and i32 %23, 1
  %25 = icmp ne i32 %24, 0
  br i1 %25, label %26, label %27

26:                                               ; preds = %17
  br label %11, !llvm.loop !227

27:                                               ; preds = %17
  %28 = load i32, ptr %5, align 4, !tbaa !27
  %29 = lshr i32 %28, 2
  %30 = load i32, ptr %4, align 4, !tbaa !27
  %31 = shl i32 %30, 24
  %32 = add i32 %29, %31
  store i32 %32, ptr %5, align 4, !tbaa !27
  br label %11, !llvm.loop !227

33:                                               ; preds = %11
  %34 = load i32, ptr %5, align 4, !tbaa !27
  store i32 %34, ptr %2, align 4
  store i32 1, ptr %6, align 4
  br label %35

35:                                               ; preds = %33, %9
  call void @llvm.lifetime.end.p0(i64 4, ptr %5) #11
  call void @llvm.lifetime.end.p0(i64 4, ptr %4) #11
  %36 = load i32, ptr %2, align 4
  ret i32 %36
}

; Function Attrs: nounwind uwtable
define internal void @show_object_pack_hint(ptr noundef %0, ptr noundef %1, ptr noundef %2) #0 {
  %4 = alloca ptr, align 8
  %5 = alloca ptr, align 8
  %6 = alloca ptr, align 8
  %7 = alloca ptr, align 8
  %8 = alloca i32, align 4
  store ptr %0, ptr %4, align 8, !tbaa !171
  store ptr %1, ptr %5, align 8, !tbaa !24
  store ptr %2, ptr %6, align 8, !tbaa !134
  call void @llvm.lifetime.start.p0(i64 8, ptr %7) #11
  %9 = load ptr, ptr %4, align 8, !tbaa !171
  %10 = getelementptr inbounds nuw %struct.object, ptr %9, i32 0, i32 1
  %11 = call ptr @packlist_find(ptr noundef @to_pack, ptr noundef %10)
  store ptr %11, ptr %7, align 8, !tbaa !9
  %12 = load ptr, ptr %7, align 8, !tbaa !9
  %13 = icmp ne ptr %12, null
  br i1 %13, label %15, label %14

14:                                               ; preds = %3
  store i32 1, ptr %8, align 4
  br label %39

15:                                               ; preds = %3
  %16 = load ptr, ptr %5, align 8, !tbaa !24
  %17 = call i32 @pack_name_hash(ptr noundef %16)
  %18 = load ptr, ptr %7, align 8, !tbaa !9
  %19 = getelementptr inbounds nuw %struct.object_entry, ptr %18, i32 0, i32 3
  store i32 %17, ptr %19, align 8, !tbaa !260
  %20 = load ptr, ptr %5, align 8, !tbaa !24
  %21 = icmp ne ptr %20, null
  br i1 %21, label %22, label %26

22:                                               ; preds = %15
  %23 = load ptr, ptr %5, align 8, !tbaa !24
  %24 = call i32 @no_try_delta(ptr noundef %23)
  %25 = icmp ne i32 %24, 0
  br label %26

26:                                               ; preds = %22, %15
  %27 = phi i1 [ false, %15 ], [ %25, %22 ]
  %28 = zext i1 %27 to i32
  %29 = load ptr, ptr %7, align 8, !tbaa !9
  %30 = getelementptr inbounds nuw %struct.object_entry, ptr %29, i32 0, i32 10
  %31 = zext i32 %28 to i64
  %32 = load i64, ptr %30, align 8
  %33 = and i64 %31, 1
  %34 = shl i64 %33, 31
  %35 = and i64 %32, -2147483649
  %36 = or i64 %35, %34
  store i64 %36, ptr %30, align 8
  %37 = load i32, ptr @stdin_packs_hints_nr, align 4, !tbaa !27
  %38 = add nsw i32 %37, 1
  store i32 %38, ptr @stdin_packs_hints_nr, align 4, !tbaa !27
  store i32 0, ptr %8, align 4
  br label %39

39:                                               ; preds = %26, %14
  call void @llvm.lifetime.end.p0(i64 8, ptr %7) #11
  %40 = load i32, ptr %8, align 4
  switch i32 %40, label %42 [
    i32 0, label %41
    i32 1, label %41
  ]

41:                                               ; preds = %39, %39
  ret void

42:                                               ; preds = %39
  unreachable
}