; Function Attrs: nounwind uwtable
define internal void @show_object_pack_hint(ptr noundef %0, ptr noundef %1, ptr readnone captures(none) %2) #0 {
  %4 = getelementptr inbounds nuw i8, ptr %0, i64 4
  %5 = tail call ptr @packlist_find(ptr noundef nonnull @to_pack, ptr noundef nonnull %4) #25
  %.not = icmp eq ptr %5, null
  br i1 %.not, label %44, label %6

6:                                                ; preds = %3
  %.not.i = icmp eq ptr %1, null
  br i1 %.not.i, label %pack_name_hash.exit.thread, label %.outer.i

pack_name_hash.exit.thread:                       ; preds = %6
  %7 = getelementptr inbounds nuw i8, ptr %5, i64 64
  store i32 0, ptr %7, align 8, !tbaa !197
  br label %36

.outer.i:                                         ; preds = %6, %16
  %.07.ph.i = phi ptr [ %11, %16 ], [ %1, %6 ]
  %.0.ph.i = phi i32 [ %20, %16 ], [ 0, %6 ]
  br label %8

8:                                                ; preds = %10, %.outer.i
  %.07.i = phi ptr [ %11, %10 ], [ %.07.ph.i, %.outer.i ]
  %9 = load i8, ptr %.07.i, align 1, !tbaa !29
  %.not10.i = icmp eq i8 %9, 0
  br i1 %.not10.i, label %pack_name_hash.exit, label %10

10:                                               ; preds = %8
  %11 = getelementptr inbounds nuw i8, ptr %.07.i, i64 1
  %12 = zext i8 %9 to i64
  %13 = getelementptr inbounds nuw [256 x i8], ptr @sane_ctype, i64 0, i64 %12
  %14 = load i8, ptr %13, align 1, !tbaa !29
  %15 = and i8 %14, 1
  %.not11.i = icmp eq i8 %15, 0
  br i1 %.not11.i, label %16, label %8, !llvm.loop !287

16:                                               ; preds = %10
  %17 = sext i8 %9 to i32
  %18 = lshr i32 %.0.ph.i, 2
  %19 = shl nsw i32 %17, 24
  %20 = add i32 %19, %18
  br label %.outer.i, !llvm.loop !287

pack_name_hash.exit:                              ; preds = %8
  %21 = getelementptr inbounds nuw i8, ptr %5, i64 64
  store i32 %.0.ph.i, ptr %21, align 8, !tbaa !197
  %22 = load ptr, ptr @no_try_delta.check, align 8, !tbaa !291
  %.not.i9 = icmp eq ptr %22, null
  br i1 %.not.i9, label %23, label %no_try_delta.exit

23:                                               ; preds = %pack_name_hash.exit
  %24 = tail call ptr (ptr, ...) @attr_check_initl(ptr noundef nonnull @.str.152, ptr noundef null) #25
  store ptr %24, ptr @no_try_delta.check, align 8, !tbaa !291
  br label %no_try_delta.exit

no_try_delta.exit:                                ; preds = %pack_name_hash.exit, %23
  %25 = phi ptr [ %24, %23 ], [ %22, %pack_name_hash.exit ]
  %26 = load ptr, ptr @the_repository, align 8, !tbaa !4
  %27 = getelementptr inbounds nuw i8, ptr %26, i64 384
  %28 = load ptr, ptr %27, align 8, !tbaa !293
  tail call void @git_check_attr(ptr noundef %28, ptr noundef nonnull %1, ptr noundef %25) #25
  %29 = load ptr, ptr @no_try_delta.check, align 8, !tbaa !291
  %30 = getelementptr inbounds nuw i8, ptr %29, i64 8
  %31 = load ptr, ptr %30, align 8, !tbaa !294
  %32 = getelementptr inbounds nuw i8, ptr %31, i64 8
  %33 = load ptr, ptr %32, align 8, !tbaa !299
  %34 = icmp eq ptr %33, @git_attr__false
  %35 = select i1 %34, i64 2147483648, i64 0
  br label %36

36:                                               ; preds = %pack_name_hash.exit.thread, %no_try_delta.exit
  %37 = phi i64 [ %35, %no_try_delta.exit ], [ 0, %pack_name_hash.exit.thread ]
  %38 = getelementptr inbounds nuw i8, ptr %5, i64 88
  %39 = load i64, ptr %38, align 8
  %40 = and i64 %39, -2147483649
  %41 = or disjoint i64 %40, %37
  store i64 %41, ptr %38, align 8
  %42 = load i32, ptr @stdin_packs_hints_nr, align 4, !tbaa !30
  %43 = add nsw i32 %42, 1
  store i32 %43, ptr @stdin_packs_hints_nr, align 4, !tbaa !30
  br label %44

44:                                               ; preds = %3, %36
  ret void
}